target datalayout = "e-m:e-p270:32:32-p271:32:32-p272:64:64-i64:64-i128:128-f80:128-n8:16:32:64-S128"
target triple = "x86_64-pc-linux-gnu"

%struct.tag_mikey_t = type { i8 }
%struct.mikey_dissector_entry = type { i32, ptr }

@hf_mikey_pl = internal global [27 x i32] zeroinitializer, align 16
@hf_mikey = internal global [71 x i32] zeroinitializer, align 16
@ett_mikey_enc_data = internal global i32 0, align 4

; Function Attrs: nounwind null_pointer_is_valid sspstrong uwtable
define internal ptr @mikey_dissector_lookup(ptr noundef %0, i32 noundef %1) #4 {
  %3 = alloca ptr, align 8
  %4 = alloca ptr, align 8
  %5 = alloca i32, align 4
  %6 = alloca i32, align 4
  %7 = alloca i32, align 4
  store ptr %0, ptr %4, align 8
  store i32 %1, ptr %5, align 4
  call void @llvm.lifetime.start.p0(i64 4, ptr %6) #5
  store i32 0, ptr %6, align 4
  br label %8

8:                                                ; preds = %31, %2
  %9 = load ptr, ptr %4, align 8
  %10 = load i32, ptr %6, align 4
  %11 = zext i32 %10 to i64
  %12 = getelementptr %struct.mikey_dissector_entry, ptr %9, i64 %11
  %13 = getelementptr inbounds nuw %struct.mikey_dissector_entry, ptr %12, i32 0, i32 1
  %14 = load ptr, ptr %13, align 8
  %15 = icmp ne ptr %14, null
  br i1 %15, label %16, label %34

16:                                               ; preds = %8
  %17 = load ptr, ptr %4, align 8
  %18 = load i32, ptr %6, align 4
  %19 = zext i32 %18 to i64
  %20 = getelementptr %struct.mikey_dissector_entry, ptr %17, i64 %19
  %21 = getelementptr inbounds nuw %struct.mikey_dissector_entry, ptr %20, i32 0, i32 0
  %22 = load i32, ptr %21, align 8
  %23 = load i32, ptr %5, align 4
  %24 = icmp eq i32 %22, %23
  br i1 %24, label %25, label %30

25:                                               ; preds = %16
  %26 = load ptr, ptr %4, align 8
  %27 = load i32, ptr %6, align 4
  %28 = zext i32 %27 to i64
  %29 = getelementptr %struct.mikey_dissector_entry, ptr %26, i64 %28
  store ptr %29, ptr %3, align 8
  store i32 1, ptr %7, align 4
  br label %35

30:                                               ; preds = %16
  br label %31

31:                                               ; preds = %30
  %32 = load i32, ptr %6, align 4
  %33 = add i32 %32, 1
  store i32 %33, ptr %6, align 4
  br label %8, !llvm.loop !8

34:                                               ; preds = %8
  store ptr null, ptr %3, align 8
  store i32 1, ptr %7, align 4
  br label %35

35:                                               ; preds = %34, %25
  call void @llvm.lifetime.end.p0(i64 4, ptr %6) #5
  %36 = load ptr, ptr %3, align 8
  ret ptr %36
}

; Function Attrs: null_pointer_is_valid sspstrong uwtable
define internal i32 @dissect_payload(i32 noundef %0, ptr noundef %1, ptr noundef %2, ptr noundef %3, ptr noundef %4) #0 {
  %6 = alloca i32, align 4
  %7 = alloca i32, align 4
  %8 = alloca ptr, align 8
  %9 = alloca ptr, align 8
  %10 = alloca ptr, align 8
  %11 = alloca ptr, align 8
  %12 = alloca ptr, align 8
  %13 = alloca i32, align 4
  store i32 %0, ptr %7, align 4
  store ptr %1, ptr %8, align 8
  store ptr %2, ptr %9, align 8
  store ptr %3, ptr %10, align 8
  store ptr %4, ptr %11, align 8
  call void @llvm.lifetime.start.p0(i64 8, ptr %12) #5
  %14 = load i32, ptr %7, align 4
  %15 = call ptr @mikey_dissector_lookup(ptr noundef @payload_map, i32 noundef %14)
  store ptr %15, ptr %12, align 8
  %16 = load ptr, ptr %12, align 8
  %17 = icmp ne ptr %16, null
  br i1 %17, label %18, label %23

18:                                               ; preds = %5
  %19 = load ptr, ptr %12, align 8
  %20 = getelementptr inbounds nuw %struct.mikey_dissector_entry, ptr %19, i32 0, i32 1
  %21 = load ptr, ptr %20, align 8
  %22 = icmp ne ptr %21, null
  br i1 %22, label %24, label %23

23:                                               ; preds = %18, %5
  store i32 0, ptr %6, align 4
  store i32 1, ptr %13, align 4
  br label %33

24:                                               ; preds = %18
  %25 = load ptr, ptr %12, align 8
  %26 = getelementptr inbounds nuw %struct.mikey_dissector_entry, ptr %25, i32 0, i32 1
  %27 = load ptr, ptr %26, align 8
  %28 = load ptr, ptr %8, align 8
  %29 = load ptr, ptr %9, align 8
  %30 = load ptr, ptr %10, align 8
  %31 = load ptr, ptr %11, align 8
  %32 = call i32 %27(ptr noundef %28, ptr noundef %29, ptr noundef %30, ptr noundef %31)
  store i32 %32, ptr %6, align 4
  store i32 1, ptr %13, align 4
  br label %33

33:                                               ; preds = %24, %23
  call void @llvm.lifetime.end.p0(i64 8, ptr %12) #5
  %34 = load i32, ptr %6, align 4
  ret i32 %34
}

; Function Attrs: null_pointer_is_valid sspstrong uwtable
define internal i32 @dissect_payload_kemac(ptr noundef %0, ptr noundef %1, ptr noundef %2, ptr noundef %3) #0 {
  %5 = alloca i32, align 4
  %6 = alloca ptr, align 8
  %7 = alloca ptr, align 8
  %8 = alloca ptr, align 8
  %9 = alloca ptr, align 8
  %10 = alloca i32, align 4
  %11 = alloca i8, align 1
  %12 = alloca i16, align 2
  %13 = alloca i16, align 2
  %14 = alloca i8, align 1
  %15 = alloca ptr, align 8
  %16 = alloca ptr, align 8
  %17 = alloca ptr, align 8
  %18 = alloca i32, align 4
  store ptr %0, ptr %6, align 8
  store ptr %1, ptr %7, align 8
  store ptr %2, ptr %8, align 8
  store ptr %3, ptr %9, align 8
  call void @llvm.lifetime.start.p0(i64 4, ptr %10) #5
  store i32 0, ptr %10, align 4
  call void @llvm.lifetime.start.p0(i64 1, ptr %11) #5
  call void @llvm.lifetime.start.p0(i64 2, ptr %12) #5
  call void @llvm.lifetime.start.p0(i64 2, ptr %13) #5
  call void @llvm.lifetime.start.p0(i64 1, ptr %14) #5
  %19 = load ptr, ptr %7, align 8
  %20 = load i32, ptr %10, align 4
  %21 = add i32 %20, 1
  %22 = call zeroext i8 @tvb_get_uint8(ptr noundef %19, i32 noundef %21)
  store i8 %22, ptr %11, align 1
  %23 = load ptr, ptr %7, align 8
  %24 = load i32, ptr %10, align 4
  %25 = add i32 %24, 2
  %26 = call zeroext i16 @tvb_get_ntohs(ptr noundef %23, i32 noundef %25)
  store i16 %26, ptr %12, align 2
  %27 = load ptr, ptr %7, align 8
  %28 = load i32, ptr %10, align 4
  %29 = add i32 %28, 4
  %30 = load i16, ptr %12, align 2
  %31 = zext i16 %30 to i32
  %32 = add i32 %31, 1
  call void @tvb_ensure_bytes_exist(ptr noundef %27, i32 noundef %29, i32 noundef %32)
  %33 = load ptr, ptr %7, align 8
  %34 = load i32, ptr %10, align 4
  %35 = add i32 %34, 4
  %36 = load i16, ptr %12, align 2
  %37 = zext i16 %36 to i32
  %38 = add i32 %35, %37
  %39 = call zeroext i8 @tvb_get_uint8(ptr noundef %33, i32 noundef %38)
  store i8 %39, ptr %14, align 1
  %40 = load ptr, ptr %9, align 8
  %41 = icmp ne ptr %40, null
  br i1 %41, label %42, label %100

42:                                               ; preds = %4
  call void @llvm.lifetime.start.p0(i64 8, ptr %15) #5
  %43 = load ptr, ptr %9, align 8
  %44 = load i32, ptr getelementptr ([71 x i32], ptr @hf_mikey, i64 0, i64 11), align 4
  %45 = load ptr, ptr %7, align 8
  %46 = call ptr @proto_tree_add_item(ptr noundef %43, i32 noundef %44, ptr noundef %45, i32 noundef 1, i32 noundef 1, i32 noundef 0)
  %47 = load ptr, ptr %9, align 8
  %48 = load i32, ptr getelementptr ([71 x i32], ptr @hf_mikey, i64 0, i64 12), align 16
  %49 = load ptr, ptr %7, align 8
  %50 = call ptr @proto_tree_add_item(ptr noundef %47, i32 noundef %48, ptr noundef %49, i32 noundef 2, i32 noundef 2, i32 noundef 0)
  %51 = load i8, ptr %11, align 1
  %52 = zext i8 %51 to i32
  %53 = icmp eq i32 %52, 0
  br i1 %53, label %54, label %85

54:                                               ; preds = %42
  %55 = load ptr, ptr %6, align 8
  %56 = getelementptr inbounds nuw %struct.tag_mikey_t, ptr %55, i32 0, i32 0
  %57 = load i8, ptr %56, align 1
  %58 = zext i8 %57 to i32
  %59 = icmp eq i32 %58, 0
  br i1 %59, label %60, label %85

60:                                               ; preds = %54
  %61 = load i16, ptr %12, align 2
  %62 = zext i16 %61 to i32
  %63 = icmp sgt i32 %62, 0
  br i1 %63, label %64, label %85

64:                                               ; preds = %60
  call void @llvm.lifetime.start.p0(i64 8, ptr %16) #5
  call void @llvm.lifetime.start.p0(i64 8, ptr %17) #5
  %65 = load ptr, ptr %9, align 8
  %66 = load i32, ptr getelementptr ([27 x i32], ptr @hf_mikey_pl, i64 0, i64 20), align 16
  %67 = load ptr, ptr %7, align 8
  %68 = load i16, ptr %12, align 2
  %69 = zext i16 %68 to i32
  %70 = call ptr @proto_tree_add_item(ptr noundef %65, i32 noundef %66, ptr noundef %67, i32 noundef 4, i32 noundef %69, i32 noundef 0)
  store ptr %70, ptr %16, align 8
  %71 = load ptr, ptr %16, align 8
  %72 = load i32, ptr @ett_mikey_enc_data, align 4
  %73 = call ptr @proto_item_add_subtree(ptr noundef %71, i32 noundef %72)
  store ptr %73, ptr %17, align 8
  %74 = load ptr, ptr %7, align 8
  %75 = load i32, ptr %10, align 4
  %76 = add i32 %75, 4
  %77 = load i16, ptr %12, align 2
  %78 = zext i16 %77 to i32
  %79 = call ptr @tvb_new_subset_length(ptr noundef %74, i32 noundef %76, i32 noundef %78)
  store ptr %79, ptr %15, align 8
  %80 = load ptr, ptr %6, align 8
  %81 = load ptr, ptr %15, align 8
  %82 = load ptr, ptr %8, align 8
  %83 = load ptr, ptr %17, align 8
  %84 = call i32 @dissect_payload(i32 noundef 20, ptr noundef %80, ptr noundef %81, ptr noundef %82, ptr noundef %83)
  call void @llvm.lifetime.end.p0(i64 8, ptr %17) #5
  call void @llvm.lifetime.end.p0(i64 8, ptr %16) #5
  br label %92

85:                                               ; preds = %60, %54, %42
  %86 = load ptr, ptr %9, align 8
  %87 = load i32, ptr getelementptr ([71 x i32], ptr @hf_mikey, i64 0, i64 13), align 4
  %88 = load ptr, ptr %7, align 8
  %89 = load i16, ptr %12, align 2
  %90 = zext i16 %89 to i32
  %91 = call ptr @proto_tree_add_item(ptr noundef %86, i32 noundef %87, ptr noundef %88, i32 noundef 4, i32 noundef %90, i32 noundef 0)
  br label %92

92:                                               ; preds = %85, %64
  %93 = load ptr, ptr %9, align 8
  %94 = load i32, ptr getelementptr ([71 x i32], ptr @hf_mikey, i64 0, i64 14), align 8
  %95 = load ptr, ptr %7, align 8
  %96 = load i16, ptr %12, align 2
  %97 = zext i16 %96 to i32
  %98 = add i32 4, %97
  %99 = call ptr @proto_tree_add_item(ptr noundef %93, i32 noundef %94, ptr noundef %95, i32 noundef %98, i32 noundef 1, i32 noundef 0)
  call void @llvm.lifetime.end.p0(i64 8, ptr %15) #5
  br label %100

100:                                              ; preds = %92, %4
  %101 = load i8, ptr %14, align 1
  %102 = zext i8 %101 to i32
  switch i32 %102, label %105 [
    i32 0, label %103
    i32 1, label %104
  ]

103:                                              ; preds = %100
  store i16 0, ptr %13, align 2
  br label %106

104:                                              ; preds = %100
  store i16 20, ptr %13, align 2
  br label %106

105:                                              ; preds = %100
  store i32 0, ptr %5, align 4
  store i32 1, ptr %18, align 4
  br label %124

106:                                              ; preds = %104, %103
  %107 = load ptr, ptr %9, align 8
  %108 = load i32, ptr getelementptr ([71 x i32], ptr @hf_mikey, i64 0, i64 15), align 4
  %109 = load ptr, ptr %7, align 8
  %110 = load i16, ptr %12, align 2
  %111 = zext i16 %110 to i32
  %112 = add i32 4, %111
  %113 = add i32 %112, 1
  %114 = load i16, ptr %13, align 2
  %115 = zext i16 %114 to i32
  %116 = call ptr @proto_tree_add_item(ptr noundef %107, i32 noundef %108, ptr noundef %109, i32 noundef %113, i32 noundef %115, i32 noundef 0)
  %117 = load i16, ptr %12, align 2
  %118 = zext i16 %117 to i32
  %119 = add i32 4, %118
  %120 = add i32 %119, 1
  %121 = load i16, ptr %13, align 2
  %122 = zext i16 %121 to i32
  %123 = add i32 %120, %122
  store i32 %123, ptr %5, align 4
  store i32 1, ptr %18, align 4
  br label %124

124:                                              ; preds = %106, %105
  call void @llvm.lifetime.end.p0(i64 1, ptr %14) #5
  call void @llvm.lifetime.end.p0(i64 2, ptr %13) #5
  call void @llvm.lifetime.end.p0(i64 2, ptr %12) #5
  call void @llvm.lifetime.end.p0(i64 1, ptr %11) #5
  call void @llvm.lifetime.end.p0(i64 4, ptr %10) #5
  %125 = load i32, ptr %5, align 4
  ret i32 %125
}