; Function Attrs: null_pointer_is_valid sspstrong uwtable
define internal range(i32 0, 65561) i32 @dissect_payload_kemac(ptr noundef readonly captures(none) %0, ptr noundef %1, ptr noundef readnone captures(none) %2, ptr noundef %3) #0 {
  %5 = tail call zeroext i8 @tvb_get_uint8(ptr noundef %1, i32 noundef 1)
  %6 = tail call zeroext i16 @tvb_get_ntohs(ptr noundef %1, i32 noundef 2)
  %7 = zext i16 %6 to i32
  %8 = add nuw nsw i32 %7, 1
  tail call void @tvb_ensure_bytes_exist(ptr noundef %1, i32 noundef 4, i32 noundef %8)
  %9 = add nuw nsw i32 %7, 4
  %10 = tail call zeroext i8 @tvb_get_uint8(ptr noundef %1, i32 noundef %9)
  %.not = icmp eq ptr %3, null
  br i1 %.not, label %33, label %11

11:                                               ; preds = %4
  %12 = load i32, ptr getelementptr inbounds nuw (i8, ptr @hf_mikey, i64 44), align 4
  %13 = tail call ptr @proto_tree_add_item(ptr noundef nonnull %3, i32 noundef %12, ptr noundef %1, i32 noundef 1, i32 noundef 1, i32 noundef 0)
  %14 = load i32, ptr getelementptr inbounds nuw (i8, ptr @hf_mikey, i64 48), align 16
  %15 = tail call ptr @proto_tree_add_item(ptr noundef nonnull %3, i32 noundef %14, ptr noundef %1, i32 noundef 2, i32 noundef 2, i32 noundef 0)
  %16 = icmp eq i8 %5, 0
  br i1 %16, label %17, label %28

17:                                               ; preds = %11
  %18 = load i8, ptr %0, align 1
  %19 = icmp eq i8 %18, 0
  %20 = icmp ne i16 %6, 0
  %or.cond = and i1 %20, %19
  br i1 %or.cond, label %21, label %28

21:                                               ; preds = %17
  %22 = load i32, ptr getelementptr inbounds nuw (i8, ptr @hf_mikey_pl, i64 80), align 16
  %23 = tail call ptr @proto_tree_add_item(ptr noundef nonnull %3, i32 noundef %22, ptr noundef %1, i32 noundef 4, i32 noundef %7, i32 noundef 0)
  %24 = load i32, ptr @ett_mikey_enc_data, align 4
  %25 = tail call ptr @proto_item_add_subtree(ptr noundef %23, i32 noundef %24)
  %26 = tail call ptr @tvb_new_subset_length(ptr noundef %1, i32 noundef 4, i32 noundef %7)
  %27 = tail call i32 @dissect_payload_keydata(ptr poison, ptr noundef %26, ptr poison, ptr noundef %25)
  br label %dissect_payload.exit

28:                                               ; preds = %17, %11
  %29 = load i32, ptr getelementptr inbounds nuw (i8, ptr @hf_mikey, i64 52), align 4
  %30 = tail call ptr @proto_tree_add_item(ptr noundef nonnull %3, i32 noundef %29, ptr noundef %1, i32 noundef 4, i32 noundef %7, i32 noundef 0)
  br label %dissect_payload.exit

dissect_payload.exit:                             ; preds = %21, %28
  %31 = load i32, ptr getelementptr inbounds nuw (i8, ptr @hf_mikey, i64 56), align 8
  %32 = tail call ptr @proto_tree_add_item(ptr noundef nonnull %3, i32 noundef %31, ptr noundef %1, i32 noundef %9, i32 noundef 1, i32 noundef 0)
  br label %33

33:                                               ; preds = %dissect_payload.exit, %4
  switch i8 %10, label %40 [
    i8 0, label %35
    i8 1, label %34
  ]

34:                                               ; preds = %33
  br label %35

35:                                               ; preds = %33, %34
  %.044 = phi i32 [ 20, %34 ], [ 0, %33 ]
  %36 = load i32, ptr getelementptr inbounds nuw (i8, ptr @hf_mikey, i64 60), align 4
  %37 = add nuw nsw i32 %7, 5
  %38 = tail call ptr @proto_tree_add_item(ptr noundef %3, i32 noundef %36, ptr noundef %1, i32 noundef %37, i32 noundef %.044, i32 noundef 0)
  %39 = add nuw nsw i32 %.044, %37
  br label %40

40:                                               ; preds = %33, %35
  %.0 = phi i32 [ %39, %35 ], [ 0, %33 ]
  ret i32 %.0
}